target datalayout = "e-m:e-p270:32:32-p271:32:32-p272:64:64-i64:64-i128:128-f80:128-n8:16:32:64-S128"
target triple = "x86_64-pc-linux-gnu"

%class.QString = type { %struct.QArrayDataPointer }
%struct.QArrayDataPointer = type { ptr, ptr, i64 }
%class.QPen = type { ptr }
%class.QBrush = type { %"class.std::unique_ptr" }
%"class.std::unique_ptr" = type { %"struct.std::__uniq_ptr_data" }
%"struct.std::__uniq_ptr_data" = type { %"class.std::__uniq_ptr_impl" }
%"class.std::__uniq_ptr_impl" = type { %"class.std::tuple" }
%"class.std::tuple" = type { %"struct.std::_Tuple_impl" }
%"struct.std::_Tuple_impl" = type { %"struct.std::_Head_base.32" }
%"struct.std::_Head_base.32" = type { ptr }
%class.QSharedPointer = type { ptr, ptr }
%class.QList.6 = type { %struct.QArrayDataPointer.9 }
%struct.QArrayDataPointer.9 = type { ptr, ptr, i64 }
%class.QVariant = type { %"struct.QVariant::Private" }
%"struct.QVariant::Private" = type { %union.anon, i64 }
%union.anon = type { ptr, [16 x i8] }
%class.QFlags.30 = type { i32 }
%class.RtpPlayerDialog = type { %class.RtpBaseDialog.base, ptr, ptr, ptr, double, double, double, double, double, double, ptr, ptr, %class.QString, %class.QSharedPointer, %class.QSharedPointer.1, i8, %class.QList.2, ptr, %class.QTimer, i64, i32, ptr, i8, ptr, ptr, ptr, ptr, ptr, %class.QMultiHash, i8, i32, i8, double, ptr, %class.QPoint }
%class.RtpBaseDialog.base = type { %class.WiresharkDialog.base }
%class.WiresharkDialog.base = type <{ %class.GeometryStateDialog, ptr, i8, [7 x i8], %class.QString, %class.QList, i32, i8 }>
%class.GeometryStateDialog = type { %class.QDialog, %class.QString, ptr }
%class.QDialog = type { %class.QWidget }
%class.QWidget = type { %class.QObject, %class.QPaintDevice.base, ptr }
%class.QObject = type { ptr, %class.QScopedPointer }
%class.QScopedPointer = type { ptr }
%class.QPaintDevice.base = type <{ ptr, i16 }>
%class.QList = type { %struct.QArrayDataPointer.0 }
%struct.QArrayDataPointer.0 = type { ptr, ptr, i64 }
%class.QSharedPointer.1 = type { ptr, ptr }
%class.QList.2 = type { %struct.QArrayDataPointer.5 }
%struct.QArrayDataPointer.5 = type { ptr, ptr, i64 }
%class.QTimer = type { %class.QObject }
%class.QMultiHash = type { ptr, i64 }
%class.QPoint = type { i32, i32 }
%class.Ui_RtpPlayerDialog = type { ptr, ptr, ptr, ptr, ptr, ptr, ptr, ptr, ptr, ptr, ptr, ptr, ptr, ptr, ptr, ptr, ptr, ptr, ptr, ptr, ptr, ptr, ptr, ptr, ptr, ptr, ptr, ptr, ptr, ptr, ptr, ptr, ptr, ptr, ptr, ptr, ptr, ptr, ptr, ptr, ptr, ptr, ptr, ptr, ptr, ptr, ptr, ptr, ptr, ptr, ptr, ptr, ptr, ptr, ptr, ptr, ptr, ptr, ptr, ptr, ptr, ptr, ptr, ptr, ptr, ptr, ptr, ptr }
%class.QCustomPlot = type <{ %class.QWidget, ptr, ptr, ptr, ptr, ptr, %class.QRect, double, ptr, i8, [7 x i8], %class.QList.14, %class.QList.18, %class.QList.22, %class.QList.26, %class.QFlags, %class.QFlags, %class.QFlags.30, i32, i8, [7 x i8], %class.QBrush, %class.QPixmap, %class.QPixmap, i8, [3 x i8], i32, ptr, %class.QFlags.34, i32, i32, [4 x i8], ptr, i8, [7 x i8], %class.QList.35, %class.QPoint, i8, [7 x i8], %class.QPointer, %class.QPointer, %class.QVariant, %class.QVariant, i8, i8, [6 x i8], double, double, i32, %class.QFlags, i8, [7 x i8] }>
%class.QRect = type { i32, i32, i32, i32 }
%class.QList.14 = type { %struct.QArrayDataPointer.17 }
%struct.QArrayDataPointer.17 = type { ptr, ptr, i64 }
%class.QList.18 = type { %struct.QArrayDataPointer.21 }
%struct.QArrayDataPointer.21 = type { ptr, ptr, i64 }
%class.QList.22 = type { %struct.QArrayDataPointer.25 }
%struct.QArrayDataPointer.25 = type { ptr, ptr, i64 }
%class.QList.26 = type { %struct.QArrayDataPointer.29 }
%struct.QArrayDataPointer.29 = type { ptr, ptr, i64 }
%class.QPixmap = type { %class.QPaintDevice.base, %class.QExplicitlySharedDataPointer.33 }
%class.QExplicitlySharedDataPointer.33 = type { ptr }
%class.QFlags.34 = type { i32 }
%class.QList.35 = type { %struct.QArrayDataPointer.38 }
%struct.QArrayDataPointer.38 = type { ptr, ptr, i64 }
%class.QPointer = type { %class.QWeakPointer }
%class.QWeakPointer = type { ptr, ptr }
%class.QFlags = type { i32 }
%class.QFont = type <{ %class.QExplicitlySharedDataPointer, i32, [4 x i8] }>
%class.QExplicitlySharedDataPointer = type { ptr }
%class.QCPLayerable.base = type <{ %class.QObject, i8, [7 x i8], ptr, %class.QPointer, ptr, i8 }>
%struct.QLatin1Char = type { i8 }
%class.QList.57 = type { %struct.QArrayDataPointer.60 }
%struct.QArrayDataPointer.60 = type { ptr, ptr, i64 }
%class.QColor = type <{ i32, %"union.QColor::CT", [2 x i8] }>
%"union.QColor::CT" = type { %struct.anon }
%struct.anon = type { i16, i16, i16, i16, i16 }
%class.QCPRange = type { double, double }
%class.QCPAxis = type { %class.QCPLayerable.base, i32, ptr, i32, i32, %class.QFlags.52, %class.QFlags.52, %class.QPen, %class.QPen, %class.QString, %class.QFont, %class.QFont, %class.QColor, %class.QColor, i8, [7 x i8], %class.QFont, %class.QFont, %class.QColor, %class.QColor, i32, %struct.QLatin1Char, i8, i8, i8, %class.QPen, %class.QPen, %class.QPen, %class.QPen, %class.QCPRange, i8, i32, ptr, ptr, %class.QSharedPointer, %class.QList.57, %class.QList.6, %class.QList.57, i8, i32, i8, %class.QCPRange, %class.QFlags, %class.QFlags }
%class.QFlags.52 = type { i32 }
%class.QCPLayoutElement = type { %class.QCPLayerable.base, ptr, %class.QSize, %class.QSize, i32, %class.QRect, %class.QRect, %class.QMargins, %class.QMargins, %class.QFlags.97, %class.QHash.98 }
%class.QSize = type { i32, i32 }
%class.QMargins = type { i32, i32, i32, i32 }
%class.QFlags.97 = type { i32 }
%class.QHash.98 = type { ptr }

; Function Attrs: inlinehint mustprogress nounwind null_pointer_is_valid sspstrong uwtable
define linkonce_odr noundef i32 @_ZNK5QRect6heightEv(ptr noundef align 4 dereferenceable_or_null(16) %0) #7 comdat align 2 {
  %2 = alloca ptr, align 8
  store ptr %0, ptr %2, align 8
  %3 = load ptr, ptr %2, align 8
  %4 = getelementptr inbounds nuw %class.QRect, ptr %3, i32 0, i32 3
  %5 = load i32, ptr %4, align 4
  %6 = getelementptr inbounds nuw %class.QRect, ptr %3, i32 0, i32 1
  %7 = load i32, ptr %6, align 4
  %8 = sub i32 %5, %7
  %9 = add i32 %8, 1
  ret i32 %9
}

; Function Attrs: inlinehint mustprogress nounwind null_pointer_is_valid sspstrong uwtable
define linkonce_odr noundef i32 @_ZNK5QRect5widthEv(ptr noundef align 4 dereferenceable_or_null(16) %0) #7 comdat align 2 {
  %2 = alloca ptr, align 8
  store ptr %0, ptr %2, align 8
  %3 = load ptr, ptr %2, align 8
  %4 = getelementptr inbounds nuw %class.QRect, ptr %3, i32 0, i32 2
  %5 = load i32, ptr %4, align 4
  %6 = getelementptr inbounds nuw %class.QRect, ptr %3, i32 0, i32 0
  %7 = load i32, ptr %6, align 4
  %8 = sub i32 %5, %7
  %9 = add i32 %8, 1
  ret i32 %9
}

; Function Attrs: mustprogress nounwind null_pointer_is_valid sspstrong uwtable
define linkonce_odr noundef i32 @_ZNK11QCPAxisRect6heightEv(ptr noundef align 8 dereferenceable_or_null(432) %0) #6 comdat align 2 {
  %2 = alloca ptr, align 8
  store ptr %0, ptr %2, align 8
  %3 = load ptr, ptr %2, align 8
  %4 = getelementptr inbounds nuw %class.QCPLayoutElement, ptr %3, i32 0, i32 5
  %5 = call noundef i32 @_ZNK5QRect6heightEv(ptr noundef align 4 dereferenceable_or_null(16) %4) #26
  ret i32 %5
}

; Function Attrs: mustprogress nounwind null_pointer_is_valid sspstrong uwtable
define linkonce_odr noundef double @_ZNK8QCPRange6centerEv(ptr noundef align 8 dereferenceable_or_null(16) %0) #6 comdat align 2 {
  %2 = alloca ptr, align 8
  store ptr %0, ptr %2, align 8
  %3 = load ptr, ptr %2, align 8
  %4 = getelementptr inbounds nuw %class.QCPRange, ptr %3, i32 0, i32 1
  %5 = load double, ptr %4, align 8
  %6 = getelementptr inbounds nuw %class.QCPRange, ptr %3, i32 0, i32 0
  %7 = load double, ptr %6, align 8
  %8 = fadd double %5, %7
  %9 = fmul double %8, 5.000000e-01
  ret double %9
}

; Function Attrs: mustprogress nounwind null_pointer_is_valid sspstrong uwtable
define linkonce_odr { double, double } @_ZNK7QCPAxis5rangeEv(ptr noundef align 8 dereferenceable_or_null(472) %0) #6 comdat align 2 {
  %2 = alloca %class.QCPRange, align 8
  %3 = alloca ptr, align 8
  store ptr %0, ptr %3, align 8
  %4 = load ptr, ptr %3, align 8
  %5 = getelementptr inbounds nuw %class.QCPAxis, ptr %4, i32 0, i32 29
  call void @llvm.memcpy.p0.p0.i64(ptr align 8 %2, ptr align 8 %5, i64 16, i1 false)
  %6 = load { double, double }, ptr %2, align 8
  ret { double, double } %6
}

; Function Attrs: mustprogress nounwind null_pointer_is_valid sspstrong uwtable
define linkonce_odr noundef i32 @_ZNK11QCPAxisRect5widthEv(ptr noundef align 8 dereferenceable_or_null(432) %0) #6 comdat align 2 {
  %2 = alloca ptr, align 8
  store ptr %0, ptr %2, align 8
  %3 = load ptr, ptr %2, align 8
  %4 = getelementptr inbounds nuw %class.QCPLayoutElement, ptr %3, i32 0, i32 5
  %5 = call noundef i32 @_ZNK5QRect5widthEv(ptr noundef align 4 dereferenceable_or_null(16) %4) #26
  ret i32 %5
}

; Function Attrs: mustprogress nounwind null_pointer_is_valid sspstrong uwtable
define linkonce_odr noundef ptr @_ZNK7QCPAxis8axisRectEv(ptr noundef align 8 dereferenceable_or_null(472) %0) #6 comdat align 2 {
  %2 = alloca ptr, align 8
  store ptr %0, ptr %2, align 8
  %3 = load ptr, ptr %2, align 8
  %4 = getelementptr inbounds nuw %class.QCPAxis, ptr %3, i32 0, i32 2
  %5 = load ptr, ptr %4, align 8
  ret ptr %5
}

; Function Attrs: mustprogress null_pointer_is_valid sspstrong uwtable
define void @_ZN15RtpPlayerDialog10resetXAxisEv(ptr noundef align 8 dereferenceable_or_null(472) %0) #0 align 2 {
  %2 = alloca ptr, align 8
  %3 = alloca ptr, align 8
  %4 = alloca double, align 8
  %5 = alloca double, align 8
  %6 = alloca %class.QCPRange, align 8
  %7 = alloca %class.QCPRange, align 8
  store ptr %0, ptr %2, align 8
  %8 = load ptr, ptr %2, align 8
  call void @llvm.lifetime.start.p0(i64 8, ptr %3) #26
  %9 = getelementptr inbounds nuw %class.RtpPlayerDialog, ptr %8, i32 0, i32 1
  %10 = load ptr, ptr %9, align 8
  %11 = getelementptr inbounds nuw %class.Ui_RtpPlayerDialog, ptr %10, i32 0, i32 39
  %12 = load ptr, ptr %11, align 8
  store ptr %12, ptr %3, align 8
  call void @llvm.lifetime.start.p0(i64 8, ptr %4) #26
  store double 1.000000e+01, ptr %4, align 8
  %13 = load ptr, ptr %3, align 8
  call void @_ZN11QCustomPlot11rescaleAxesEb(ptr noundef align 8 dereferenceable_or_null(513) %13, i1 noundef zeroext true)
  call void @llvm.lifetime.start.p0(i64 8, ptr %5) #26
  %14 = load ptr, ptr %3, align 8
  %15 = getelementptr inbounds nuw %class.QCustomPlot, ptr %14, i32 0, i32 1
  %16 = load ptr, ptr %15, align 8
  %17 = call noundef ptr @_ZNK7QCPAxis8axisRectEv(ptr noundef align 8 dereferenceable_or_null(472) %16)
  %18 = call noundef i32 @_ZNK11QCPAxisRect5widthEv(ptr noundef align 8 dereferenceable_or_null(432) %17)
  %19 = sitofp i32 %18 to double
  store double %19, ptr %5, align 8
  %20 = load ptr, ptr %3, align 8
  %21 = getelementptr inbounds nuw %class.QCustomPlot, ptr %20, i32 0, i32 1
  %22 = load ptr, ptr %21, align 8
  %23 = load double, ptr %5, align 8
  %24 = load double, ptr %4, align 8
  %25 = call double @llvm.fmuladd.f64(double %24, double 2.000000e+00, double %23)
  %26 = load double, ptr %5, align 8
  %27 = fdiv double %25, %26
  call void @llvm.lifetime.start.p0(i64 16, ptr %6) #26
  %28 = load ptr, ptr %3, align 8
  %29 = getelementptr inbounds nuw %class.QCustomPlot, ptr %28, i32 0, i32 1
  %30 = load ptr, ptr %29, align 8
  %31 = call { double, double } @_ZNK7QCPAxis5rangeEv(ptr noundef align 8 dereferenceable_or_null(472) %30)
  %32 = getelementptr inbounds nuw { double, double }, ptr %6, i32 0, i32 0
  %33 = extractvalue { double, double } %31, 0
  store double %33, ptr %32, align 8
  %34 = getelementptr inbounds nuw { double, double }, ptr %6, i32 0, i32 1
  %35 = extractvalue { double, double } %31, 1
  store double %35, ptr %34, align 8
  %36 = call noundef double @_ZNK8QCPRange6centerEv(ptr noundef align 8 dereferenceable_or_null(16) %6)
  call void @_ZN7QCPAxis10scaleRangeEdd(ptr noundef align 8 dereferenceable_or_null(472) %22, double noundef %27, double noundef %36)
  call void @llvm.lifetime.end.p0(i64 16, ptr %6) #26
  %37 = load ptr, ptr %3, align 8
  %38 = getelementptr inbounds nuw %class.QCustomPlot, ptr %37, i32 0, i32 2
  %39 = load ptr, ptr %38, align 8
  %40 = call noundef ptr @_ZNK7QCPAxis8axisRectEv(ptr noundef align 8 dereferenceable_or_null(472) %39)
  %41 = call noundef i32 @_ZNK11QCPAxisRect6heightEv(ptr noundef align 8 dereferenceable_or_null(432) %40)
  %42 = sitofp i32 %41 to double
  store double %42, ptr %5, align 8
  %43 = load ptr, ptr %3, align 8
  %44 = getelementptr inbounds nuw %class.QCustomPlot, ptr %43, i32 0, i32 2
  %45 = load ptr, ptr %44, align 8
  %46 = load double, ptr %5, align 8
  %47 = load double, ptr %4, align 8
  %48 = call double @llvm.fmuladd.f64(double %47, double 2.000000e+00, double %46)
  %49 = load double, ptr %5, align 8
  %50 = fdiv double %48, %49
  call void @llvm.lifetime.start.p0(i64 16, ptr %7) #26
  %51 = load ptr, ptr %3, align 8
  %52 = getelementptr inbounds nuw %class.QCustomPlot, ptr %51, i32 0, i32 2
  %53 = load ptr, ptr %52, align 8
  %54 = call { double, double } @_ZNK7QCPAxis5rangeEv(ptr noundef align 8 dereferenceable_or_null(472) %53)
  %55 = getelementptr inbounds nuw { double, double }, ptr %7, i32 0, i32 0
  %56 = extractvalue { double, double } %54, 0
  store double %56, ptr %55, align 8
  %57 = getelementptr inbounds nuw { double, double }, ptr %7, i32 0, i32 1
  %58 = extractvalue { double, double } %54, 1
  store double %58, ptr %57, align 8
  %59 = call noundef double @_ZNK8QCPRange6centerEv(ptr noundef align 8 dereferenceable_or_null(16) %7)
  call void @_ZN7QCPAxis10scaleRangeEdd(ptr noundef align 8 dereferenceable_or_null(472) %45, double noundef %50, double noundef %59)
  call void @llvm.lifetime.end.p0(i64 16, ptr %7) #26
  %60 = load ptr, ptr %3, align 8
  call void @_ZN11QCustomPlot6replotENS_15RefreshPriorityE(ptr noundef align 8 dereferenceable_or_null(513) %60, i32 noundef 2)
  call void @llvm.lifetime.end.p0(i64 8, ptr %5) #26
  call void @llvm.lifetime.end.p0(i64 8, ptr %4) #26
  call void @llvm.lifetime.end.p0(i64 8, ptr %3) #26
  ret void
}

; Function Attrs: mustprogress null_pointer_is_valid sspstrong uwtable
define void @_ZN15RtpPlayerDialog24on_actionReset_triggeredEv(ptr noundef align 8 dereferenceable_or_null(472) %0) #0 align 2 {
  %2 = alloca ptr, align 8
  store ptr %0, ptr %2, align 8
  %3 = load ptr, ptr %2, align 8
  call void @_ZN15RtpPlayerDialog10resetXAxisEv(ptr noundef align 8 dereferenceable_or_null(472) %3)
  ret void
}