; Function Attrs: mustprogress null_pointer_is_valid sspstrong uwtable
define void @_ZN15RtpPlayerDialog24on_actionReset_triggeredEv(ptr noundef readonly align 8 captures(none) dereferenceable_or_null(472) %0) local_unnamed_addr #0 align 2 {
  %2 = getelementptr inbounds nuw i8, ptr %0, i64 144
  %3 = load ptr, ptr %2, align 8
  %4 = getelementptr inbounds nuw i8, ptr %3, i64 312
  %5 = load ptr, ptr %4, align 8
  tail call void @_ZN11QCustomPlot11rescaleAxesEb(ptr noundef align 8 dereferenceable_or_null(513) %5, i1 noundef zeroext true)
  %6 = getelementptr inbounds nuw i8, ptr %5, i64 40
  %7 = load ptr, ptr %6, align 8
  %8 = getelementptr inbounds nuw i8, ptr %7, i64 64
  %9 = load ptr, ptr %8, align 8
  %10 = getelementptr inbounds nuw i8, ptr %9, i64 92
  %11 = getelementptr inbounds nuw i8, ptr %9, i64 100
  %12 = load i32, ptr %11, align 4
  %13 = load i32, ptr %10, align 4
  %14 = add i32 %12, 1
  %15 = sub i32 %14, %13
  %16 = sitofp i32 %15 to double
  %17 = fadd double %16, 2.000000e+01
  %18 = fdiv double %17, %16
  %19 = getelementptr inbounds nuw i8, ptr %7, i64 304
  %.sroa.0.0.copyload.i.i = load double, ptr %19, align 8
  %.sroa.2.0..sroa_idx.i.i = getelementptr inbounds nuw i8, ptr %7, i64 312
  %.sroa.2.0.copyload.i.i = load double, ptr %.sroa.2.0..sroa_idx.i.i, align 8
  %20 = fadd double %.sroa.0.0.copyload.i.i, %.sroa.2.0.copyload.i.i
  %21 = fmul double %20, 5.000000e-01
  tail call void @_ZN7QCPAxis10scaleRangeEdd(ptr noundef align 8 dereferenceable_or_null(472) %7, double noundef %18, double noundef %21)
  %22 = getelementptr inbounds nuw i8, ptr %5, i64 48
  %23 = load ptr, ptr %22, align 8
  %24 = getelementptr inbounds nuw i8, ptr %23, i64 64
  %25 = load ptr, ptr %24, align 8
  %26 = getelementptr inbounds nuw i8, ptr %25, i64 104
  %27 = load i32, ptr %26, align 4
  %28 = getelementptr inbounds nuw i8, ptr %25, i64 96
  %29 = load i32, ptr %28, align 4
  %30 = add i32 %27, 1
  %31 = sub i32 %30, %29
  %32 = sitofp i32 %31 to double
  %33 = fadd double %32, 2.000000e+01
  %34 = fdiv double %33, %32
  %35 = getelementptr inbounds nuw i8, ptr %23, i64 304
  %.sroa.0.0.copyload.i15.i = load double, ptr %35, align 8
  %.sroa.2.0..sroa_idx.i16.i = getelementptr inbounds nuw i8, ptr %23, i64 312
  %.sroa.2.0.copyload.i17.i = load double, ptr %.sroa.2.0..sroa_idx.i16.i, align 8
  %36 = fadd double %.sroa.0.0.copyload.i15.i, %.sroa.2.0.copyload.i17.i
  %37 = fmul double %36, 5.000000e-01
  tail call void @_ZN7QCPAxis10scaleRangeEdd(ptr noundef align 8 dereferenceable_or_null(472) %23, double noundef %34, double noundef %37)
  tail call void @_ZN11QCustomPlot6replotENS_15RefreshPriorityE(ptr noundef align 8 dereferenceable_or_null(513) %5, i32 noundef 2)
  ret void
}